target datalayout = "e-m:e-p270:32:32-p271:32:32-p272:64:64-i64:64-i128:128-f80:128-n8:16:32:64-S128"
target triple = "x86_64-pc-linux-gnu"

%struct._object = type { %union.anon, ptr }
%union.anon = type { i64 }
%struct.tagCDataObject = type { %struct._object, ptr, i32, ptr, i64, i64, i64, ptr, %union.value }
%union.value = type { x86_fp80 }

; Function Attrs: inlinehint nounwind uwtable
define internal ptr @_Py_TYPE(ptr noundef %0) #2 {
  %2 = alloca ptr, align 8
  store ptr %0, ptr %2, align 8, !tbaa !7
  %3 = load ptr, ptr %2, align 8, !tbaa !7
  %4 = getelementptr inbounds nuw %struct._object, ptr %3, i32 0, i32 1
  %5 = load ptr, ptr %4, align 8, !tbaa !84
  ret ptr %5
}

; Function Attrs: nounwind uwtable
define internal i32 @PyCData_traverse(ptr noundef %0, ptr noundef %1, ptr noundef %2) #0 {
  %4 = alloca i32, align 4
  %5 = alloca ptr, align 8
  %6 = alloca ptr, align 8
  %7 = alloca ptr, align 8
  %8 = alloca ptr, align 8
  %9 = alloca i32, align 4
  %10 = alloca i32, align 4
  %11 = alloca i32, align 4
  %12 = alloca ptr, align 8
  %13 = alloca i32, align 4
  store ptr %0, ptr %5, align 8, !tbaa !7
  store ptr %1, ptr %6, align 8, !tbaa !3
  store ptr %2, ptr %7, align 8, !tbaa !3
  call void @llvm.lifetime.start.p0(i64 8, ptr %8) #9
  %14 = load ptr, ptr %5, align 8, !tbaa !7
  store ptr %14, ptr %8, align 8, !tbaa !39
  br label %15

15:                                               ; preds = %3
  %16 = load ptr, ptr %8, align 8, !tbaa !39
  %17 = getelementptr inbounds nuw %struct.tagCDataObject, ptr %16, i32 0, i32 7
  %18 = load ptr, ptr %17, align 16, !tbaa !61
  %19 = icmp ne ptr %18, null
  br i1 %19, label %20, label %35

20:                                               ; preds = %15
  call void @llvm.lifetime.start.p0(i64 4, ptr %9) #9
  %21 = load ptr, ptr %6, align 8, !tbaa !3
  %22 = load ptr, ptr %8, align 8, !tbaa !39
  %23 = getelementptr inbounds nuw %struct.tagCDataObject, ptr %22, i32 0, i32 7
  %24 = load ptr, ptr %23, align 16, !tbaa !61
  %25 = load ptr, ptr %7, align 8, !tbaa !3
  %26 = call i32 %21(ptr noundef %24, ptr noundef %25)
  store i32 %26, ptr %9, align 4, !tbaa !16
  %27 = load i32, ptr %9, align 4, !tbaa !16
  %28 = icmp ne i32 %27, 0
  br i1 %28, label %29, label %31

29:                                               ; preds = %20
  %30 = load i32, ptr %9, align 4, !tbaa !16
  store i32 %30, ptr %4, align 4
  store i32 1, ptr %10, align 4
  br label %32

31:                                               ; preds = %20
  store i32 0, ptr %10, align 4
  br label %32

32:                                               ; preds = %31, %29
  call void @llvm.lifetime.end.p0(i64 4, ptr %9) #9
  %33 = load i32, ptr %10, align 4
  switch i32 %33, label %83 [
    i32 0, label %34
  ]

34:                                               ; preds = %32
  br label %35

35:                                               ; preds = %34, %15
  br label %36

36:                                               ; preds = %35
  br label %37

37:                                               ; preds = %36
  br label %38

38:                                               ; preds = %37
  %39 = load ptr, ptr %8, align 8, !tbaa !39
  %40 = getelementptr inbounds nuw %struct.tagCDataObject, ptr %39, i32 0, i32 3
  %41 = load ptr, ptr %40, align 16, !tbaa !48
  %42 = icmp ne ptr %41, null
  br i1 %42, label %43, label %58

43:                                               ; preds = %38
  call void @llvm.lifetime.start.p0(i64 4, ptr %11) #9
  %44 = load ptr, ptr %6, align 8, !tbaa !3
  %45 = load ptr, ptr %8, align 8, !tbaa !39
  %46 = getelementptr inbounds nuw %struct.tagCDataObject, ptr %45, i32 0, i32 3
  %47 = load ptr, ptr %46, align 16, !tbaa !48
  %48 = load ptr, ptr %7, align 8, !tbaa !3
  %49 = call i32 %44(ptr noundef %47, ptr noundef %48)
  store i32 %49, ptr %11, align 4, !tbaa !16
  %50 = load i32, ptr %11, align 4, !tbaa !16
  %51 = icmp ne i32 %50, 0
  br i1 %51, label %52, label %54

52:                                               ; preds = %43
  %53 = load i32, ptr %11, align 4, !tbaa !16
  store i32 %53, ptr %4, align 4
  store i32 1, ptr %10, align 4
  br label %55

54:                                               ; preds = %43
  store i32 0, ptr %10, align 4
  br label %55

55:                                               ; preds = %54, %52
  call void @llvm.lifetime.end.p0(i64 4, ptr %11) #9
  %56 = load i32, ptr %10, align 4
  switch i32 %56, label %83 [
    i32 0, label %57
  ]

57:                                               ; preds = %55
  br label %58

58:                                               ; preds = %57, %38
  br label %59

59:                                               ; preds = %58
  br label %60

60:                                               ; preds = %59
  call void @llvm.lifetime.start.p0(i64 8, ptr %12) #9
  %61 = load ptr, ptr %8, align 8, !tbaa !39
  %62 = call ptr @_Py_TYPE(ptr noundef %61)
  store ptr %62, ptr %12, align 8, !tbaa !50
  br label %63

63:                                               ; preds = %60
  %64 = load ptr, ptr %12, align 8, !tbaa !50
  %65 = icmp ne ptr %64, null
  br i1 %65, label %66, label %79

66:                                               ; preds = %63
  call void @llvm.lifetime.start.p0(i64 4, ptr %13) #9
  %67 = load ptr, ptr %6, align 8, !tbaa !3
  %68 = load ptr, ptr %12, align 8, !tbaa !50
  %69 = load ptr, ptr %7, align 8, !tbaa !3
  %70 = call i32 %67(ptr noundef %68, ptr noundef %69)
  store i32 %70, ptr %13, align 4, !tbaa !16
  %71 = load i32, ptr %13, align 4, !tbaa !16
  %72 = icmp ne i32 %71, 0
  br i1 %72, label %73, label %75

73:                                               ; preds = %66
  %74 = load i32, ptr %13, align 4, !tbaa !16
  store i32 %74, ptr %4, align 4
  store i32 1, ptr %10, align 4
  br label %76

75:                                               ; preds = %66
  store i32 0, ptr %10, align 4
  br label %76

76:                                               ; preds = %75, %73
  call void @llvm.lifetime.end.p0(i64 4, ptr %13) #9
  %77 = load i32, ptr %10, align 4
  switch i32 %77, label %82 [
    i32 0, label %78
  ]

78:                                               ; preds = %76
  br label %79

79:                                               ; preds = %78, %63
  br label %80

80:                                               ; preds = %79
  br label %81

81:                                               ; preds = %80
  store i32 0, ptr %4, align 4
  store i32 1, ptr %10, align 4
  br label %82

82:                                               ; preds = %81, %76
  call void @llvm.lifetime.end.p0(i64 8, ptr %12) #9
  br label %83

83:                                               ; preds = %82, %55, %32
  call void @llvm.lifetime.end.p0(i64 8, ptr %8) #9
  %84 = load i32, ptr %4, align 4
  ret i32 %84
}