; Function Attrs: nounwind uwtable
define internal i32 @PyCData_traverse(ptr noundef readonly captures(none) %0, ptr noundef readonly captures(none) %1, ptr noundef %2) #0 {
  %4 = getelementptr inbounds nuw i8, ptr %0, i64 64
  %5 = load ptr, ptr %4, align 16, !tbaa !57
  %.not = icmp eq ptr %5, null
  br i1 %.not, label %8, label %6

6:                                                ; preds = %3
  %7 = tail call i32 %1(ptr noundef nonnull %5, ptr noundef %2) #17
  %.not32 = icmp eq i32 %7, 0
  br i1 %.not32, label %8, label %18

8:                                                ; preds = %3, %6
  %9 = getelementptr inbounds nuw i8, ptr %0, i64 32
  %10 = load ptr, ptr %9, align 16, !tbaa !44
  %.not33 = icmp eq ptr %10, null
  br i1 %.not33, label %13, label %11

11:                                               ; preds = %8
  %12 = tail call i32 %1(ptr noundef nonnull %10, ptr noundef %2) #17
  %.not34 = icmp eq i32 %12, 0
  br i1 %.not34, label %13, label %18

13:                                               ; preds = %11, %8
  %14 = getelementptr i8, ptr %0, i64 8
  %.val = load ptr, ptr %14, align 8, !tbaa !10
  %.not35 = icmp eq ptr %.val, null
  br i1 %.not35, label %17, label %15

15:                                               ; preds = %13
  %16 = tail call i32 %1(ptr noundef nonnull %.val, ptr noundef %2) #17
  %.not36 = icmp eq i32 %16, 0
  br i1 %.not36, label %17, label %18

17:                                               ; preds = %15, %13
  br label %18

18:                                               ; preds = %17, %15, %6, %11
  %.1 = phi i32 [ %12, %11 ], [ %7, %6 ], [ 0, %17 ], [ %16, %15 ]
  ret i32 %.1
}